; ModuleID = '57/1717.c'
source_filename = "57/1717.c"
target datalayout = "e-m:e-p270:32:32-p271:32:32-p272:64:64-i64:64-f80:128-n8:16:32:64-S128"
target triple = "x86_64-pc-linux-gnu"

@.str = private unnamed_addr constant [3 x i8] c"%d\00", align 1
@.str.1 = private unnamed_addr constant [3 x i8] c"%s\00", align 1
@.str.2 = private unnamed_addr constant [4 x i8] c"%s\0A\00", align 1

; Function Attrs: noinline nounwind uwtable
define dso_local i32 @main() #0 {
  %1 = alloca i32, align 4
  %2 = alloca [100 x [50 x i8]], align 16
  %3 = alloca [100 x [50 x i8]], align 16
  %4 = alloca i32, align 4
  %5 = alloca [100 x i32], align 16
  %6 = alloca i32, align 4
  %7 = alloca i32, align 4
  store i32 0, i32* %1, align 4
  %8 = call i32 (i8*, ...) @__isoc99_scanf(i8* getelementptr inbounds ([3 x i8], [3 x i8]* @.str, i64 0, i64 0), i32* %4)
  store i32 0, i32* %6, align 4
  br label %9

9:                                                ; preds = %176, %0
  %10 = load i32, i32* %6, align 4
  %11 = load i32, i32* %4, align 4
  %12 = icmp slt i32 %10, %11
  br i1 %12, label %13, label %179

13:                                               ; preds = %9
  %14 = load i32, i32* %6, align 4
  %15 = sext i32 %14 to i64
  %16 = getelementptr inbounds [100 x [50 x i8]], [100 x [50 x i8]]* %2, i64 0, i64 %15
  %17 = getelementptr inbounds [50 x i8], [50 x i8]* %16, i64 0, i64 0
  %18 = call i32 (i8*, ...) @__isoc99_scanf(i8* getelementptr inbounds ([3 x i8], [3 x i8]* @.str.1, i64 0, i64 0), i8* %17)
  %19 = load i32, i32* %6, align 4
  %20 = sext i32 %19 to i64
  %21 = getelementptr inbounds [100 x [50 x i8]], [100 x [50 x i8]]* %2, i64 0, i64 %20
  %22 = getelementptr inbounds [50 x i8], [50 x i8]* %21, i64 0, i64 0
  %23 = call i64 @strlen(i8* %22) #4
  %24 = trunc i64 %23 to i32
  %25 = load i32, i32* %6, align 4
  %26 = sext i32 %25 to i64
  %27 = getelementptr inbounds [100 x i32], [100 x i32]* %5, i64 0, i64 %26
  store i32 %24, i32* %27, align 4
  %28 = load i32, i32* %6, align 4
  %29 = sext i32 %28 to i64
  %30 = getelementptr inbounds [100 x [50 x i8]], [100 x [50 x i8]]* %2, i64 0, i64 %29
  %31 = load i32, i32* %6, align 4
  %32 = sext i32 %31 to i64
  %33 = getelementptr inbounds [100 x i32], [100 x i32]* %5, i64 0, i64 %32
  %34 = load i32, i32* %33, align 4
  %35 = sub nsw i32 %34, 3
  %36 = sext i32 %35 to i64
  %37 = getelementptr inbounds [50 x i8], [50 x i8]* %30, i64 0, i64 %36
  %38 = load i8, i8* %37, align 1
  %39 = sext i8 %38 to i32
  %40 = icmp eq i32 %39, 105
  br i1 %40, label %41, label %85

41:                                               ; preds = %13
  %42 = load i32, i32* %6, align 4
  %43 = sext i32 %42 to i64
  %44 = getelementptr inbounds [100 x [50 x i8]], [100 x [50 x i8]]* %2, i64 0, i64 %43
  %45 = load i32, i32* %6, align 4
  %46 = sext i32 %45 to i64
  %47 = getelementptr inbounds [100 x i32], [100 x i32]* %5, i64 0, i64 %46
  %48 = load i32, i32* %47, align 4
  %49 = sub nsw i32 %48, 2
  %50 = sext i32 %49 to i64
  %51 = getelementptr inbounds [50 x i8], [50 x i8]* %44, i64 0, i64 %50
  %52 = load i8, i8* %51, align 1
  %53 = sext i8 %52 to i32
  %54 = icmp eq i32 %53, 110
  br i1 %54, label %55, label %85

55:                                               ; preds = %41
  %56 = load i32, i32* %6, align 4
  %57 = sext i32 %56 to i64
  %58 = getelementptr inbounds [100 x [50 x i8]], [100 x [50 x i8]]* %2, i64 0, i64 %57
  %59 = load i32, i32* %6, align 4
  %60 = sext i32 %59 to i64
  %61 = getelementptr inbounds [100 x i32], [100 x i32]* %5, i64 0, i64 %60
  %62 = load i32, i32* %61, align 4
  %63 = sub nsw i32 %62, 1
  %64 = sext i32 %63 to i64
  %65 = getelementptr inbounds [50 x i8], [50 x i8]* %58, i64 0, i64 %64
  %66 = load i8, i8* %65, align 1
  %67 = sext i8 %66 to i32
  %68 = icmp eq i32 %67, 103
  br i1 %68, label %69, label %85

69:                                               ; preds = %55
  %70 = load i32, i32* %6, align 4
  %71 = sext i32 %70 to i64
  %72 = getelementptr inbounds [100 x [50 x i8]], [100 x [50 x i8]]* %3, i64 0, i64 %71
  %73 = getelementptr inbounds [50 x i8], [50 x i8]* %72, i64 0, i64 0
  %74 = load i32, i32* %6, align 4
  %75 = sext i32 %74 to i64
  %76 = getelementptr inbounds [100 x [50 x i8]], [100 x [50 x i8]]* %2, i64 0, i64 %75
  %77 = getelementptr inbounds [50 x i8], [50 x i8]* %76, i64 0, i64 0
  %78 = load i32, i32* %6, align 4
  %79 = sext i32 %78 to i64
  %80 = getelementptr inbounds [100 x i32], [100 x i32]* %5, i64 0, i64 %79
  %81 = load i32, i32* %80, align 4
  %82 = sub nsw i32 %81, 3
  %83 = sext i32 %82 to i64
  %84 = call i8* @strncpy(i8* %73, i8* %77, i64 %83) #5
  br label %175

85:                                               ; preds = %55, %41, %13
  %86 = load i32, i32* %6, align 4
  %87 = sext i32 %86 to i64
  %88 = getelementptr inbounds [100 x [50 x i8]], [100 x [50 x i8]]* %2, i64 0, i64 %87
  %89 = load i32, i32* %6, align 4
  %90 = sext i32 %89 to i64
  %91 = getelementptr inbounds [100 x i32], [100 x i32]* %5, i64 0, i64 %90
  %92 = load i32, i32* %91, align 4
  %93 = sub nsw i32 %92, 2
  %94 = sext i32 %93 to i64
  %95 = getelementptr inbounds [50 x i8], [50 x i8]* %88, i64 0, i64 %94
  %96 = load i8, i8* %95, align 1
  %97 = sext i8 %96 to i32
  %98 = icmp eq i32 %97, 101
  br i1 %98, label %99, label %129

99:                                               ; preds = %85
  %100 = load i32, i32* %6, align 4
  %101 = sext i32 %100 to i64
  %102 = getelementptr inbounds [100 x [50 x i8]], [100 x [50 x i8]]* %2, i64 0, i64 %101
  %103 = load i32, i32* %6, align 4
  %104 = sext i32 %103 to i64
  %105 = getelementptr inbounds [100 x i32], [100 x i32]* %5, i64 0, i64 %104
  %106 = load i32, i32* %105, align 4
  %107 = sub nsw i32 %106, 1
  %108 = sext i32 %107 to i64
  %109 = getelementptr inbounds [50 x i8], [50 x i8]* %102, i64 0, i64 %108
  %110 = load i8, i8* %109, align 1
  %111 = sext i8 %110 to i32
  %112 = icmp eq i32 %111, 114
  br i1 %112, label %113, label %129

113:                                              ; preds = %99
  %114 = load i32, i32* %6, align 4
  %115 = sext i32 %114 to i64
  %116 = getelementptr inbounds [100 x [50 x i8]], [100 x [50 x i8]]* %3, i64 0, i64 %115
  %117 = getelementptr inbounds [50 x i8], [50 x i8]* %116, i64 0, i64 0
  %118 = load i32, i32* %6, align 4
  %119 = sext i32 %118 to i64
  %120 = getelementptr inbounds [100 x [50 x i8]], [100 x [50 x i8]]* %2, i64 0, i64 %119
  %121 = getelementptr inbounds [50 x i8], [50 x i8]* %120, i64 0, i64 0
  %122 = load i32, i32* %6, align 4
  %123 = sext i32 %122 to i64
  %124 = getelementptr inbounds [100 x i32], [100 x i32]* %5, i64 0, i64 %123
  %125 = load i32, i32* %124, align 4
  %126 = sub nsw i32 %125, 2
  %127 = sext i32 %126 to i64
  %128 = call i8* @strncpy(i8* %117, i8* %121, i64 %127) #5
  br label %174

129:                                              ; preds = %99, %85
  %130 = load i32, i32* %6, align 4
  %131 = sext i32 %130 to i64
  %132 = getelementptr inbounds [100 x [50 x i8]], [100 x [50 x i8]]* %2, i64 0, i64 %131
  %133 = load i32, i32* %6, align 4
  %134 = sext i32 %133 to i64
  %135 = getelementptr inbounds [100 x i32], [100 x i32]* %5, i64 0, i64 %134
  %136 = load i32, i32* %135, align 4
  %137 = sub nsw i32 %136, 2
  %138 = sext i32 %137 to i64
  %139 = getelementptr inbounds [50 x i8], [50 x i8]* %132, i64 0, i64 %138
  %140 = load i8, i8* %139, align 1
  %141 = sext i8 %140 to i32
  %142 = icmp eq i32 %141, 108
  br i1 %142, label %143, label %173

143:                                              ; preds = %129
  %144 = load i32, i32* %6, align 4
  %145 = sext i32 %144 to i64
  %146 = getelementptr inbounds [100 x [50 x i8]], [100 x [50 x i8]]* %2, i64 0, i64 %145
  %147 = load i32, i32* %6, align 4
  %148 = sext i32 %147 to i64
  %149 = getelementptr inbounds [100 x i32], [100 x i32]* %5, i64 0, i64 %148
  %150 = load i32, i32* %149, align 4
  %151 = sub nsw i32 %150, 1
  %152 = sext i32 %151 to i64
  %153 = getelementptr inbounds [50 x i8], [50 x i8]* %146, i64 0, i64 %152
  %154 = load i8, i8* %153, align 1
  %155 = sext i8 %154 to i32
  %156 = icmp eq i32 %155, 121
  br i1 %156, label %157, label %173

157:                                              ; preds = %143
  %158 = load i32, i32* %6, align 4
  %159 = sext i32 %158 to i64
  %160 = getelementptr inbounds [100 x [50 x i8]], [100 x [50 x i8]]* %3, i64 0, i64 %159
  %161 = getelementptr inbounds [50 x i8], [50 x i8]* %160, i64 0, i64 0
  %162 = load i32, i32* %6, align 4
  %163 = sext i32 %162 to i64
  %164 = getelementptr inbounds [100 x [50 x i8]], [100 x [50 x i8]]* %2, i64 0, i64 %163
  %165 = getelementptr inbounds [50 x i8], [50 x i8]* %164, i64 0, i64 0
  %166 = load i32, i32* %6, align 4
  %167 = sext i32 %166 to i64
  %168 = getelementptr inbounds [100 x i32], [100 x i32]* %5, i64 0, i64 %167
  %169 = load i32, i32* %168, align 4
  %170 = sub nsw i32 %169, 2
  %171 = sext i32 %170 to i64
  %172 = call i8* @strncpy(i8* %161, i8* %165, i64 %171) #5
  br label %173

173:                                              ; preds = %157, %143, %129
  br label %174

174:                                              ; preds = %173, %113
  br label %175

175:                                              ; preds = %174, %69
  br label %176

176:                                              ; preds = %175
  %177 = load i32, i32* %6, align 4
  %178 = add nsw i32 %177, 1
  store i32 %178, i32* %6, align 4
  br label %9

179:                                              ; preds = %9
  store i32 0, i32* %7, align 4
  br label %180

180:                                              ; preds = %190, %179
  %181 = load i32, i32* %7, align 4
  %182 = load i32, i32* %4, align 4
  %183 = icmp slt i32 %181, %182
  br i1 %183, label %184, label %193

184:                                              ; preds = %180
  %185 = load i32, i32* %7, align 4
  %186 = sext i32 %185 to i64
  %187 = getelementptr inbounds [100 x [50 x i8]], [100 x [50 x i8]]* %3, i64 0, i64 %186
  %188 = getelementptr inbounds [50 x i8], [50 x i8]* %187, i64 0, i64 0
  %189 = call i32 (i8*, ...) @printf(i8* getelementptr inbounds ([4 x i8], [4 x i8]* @.str.2, i64 0, i64 0), i8* %188)
  br label %190

190:                                              ; preds = %184
  %191 = load i32, i32* %7, align 4
  %192 = add nsw i32 %191, 1
  store i32 %192, i32* %7, align 4
  br label %180

193:                                              ; preds = %180
  ret i32 0
}

declare dso_local i32 @__isoc99_scanf(i8*, ...) #1

; Function Attrs: nounwind readonly
declare dso_local i64 @strlen(i8*) #2

; Function Attrs: nounwind
declare dso_local i8* @strncpy(i8*, i8*, i64) #3

declare dso_local i32 @printf(i8*, ...) #1


!llvm.module.flags = !{!0}
!llvm.ident = !{!1}

!0 = !{i32 1, !"wchar_size", i32 4}
!1 = !{!"clang version 10.0.0-4ubuntu1 "}
